target datalayout = "e-m:e-p270:32:32-p271:32:32-p272:64:64-i64:64-i128:128-f80:128-n8:16:32:64-S128"
target triple = "x86_64-unknown-linux-gnu"

%class.act_cache = type <{ ptr, %class.cmap, %class.svector, i32, i32, i32, [4 x i8] }>
%class.cmap = type { %class.chashtable }
%class.chashtable = type { ptr, i32, i32, i32, i32, i32, i32, i32, ptr, ptr, ptr }
%class.svector = type { %class.vector }
%class.vector = type { ptr }
%"struct.std::pair" = type <{ ptr, i32, [4 x i8] }>
%"struct.cmap<std::pair<expr *, unsigned int>, expr *, act_cache::entry_hash, default_eq<std::pair<expr *, unsigned int>>>::key_value" = type { %"struct.std::pair", ptr }
%"struct.chashtable<cmap<std::pair<expr *, unsigned int>, expr *, act_cache::entry_hash, default_eq<std::pair<expr *, unsigned int>>>::key_value, cmap<std::pair<expr *, unsigned int>, expr *, act_cache::entry_hash, default_eq<std::pair<expr *, unsigned int>>>::key_value_hash_proc, cmap<std::pair<expr *, unsigned int>, expr *, act_cache::entry_hash, default_eq<std::pair<expr *, unsigned int>>>::key_value_eq_proc>::cell" = type { ptr, %"struct.cmap<std::pair<expr *, unsigned int>, expr *, act_cache::entry_hash, default_eq<std::pair<expr *, unsigned int>>>::key_value" }

; Function Attrs: mustprogress uwtable
define linkonce_odr hidden void @_Z12dealloc_vectIN10chashtableIN4cmapISt4pairIP4exprjES4_N9act_cache10entry_hashE10default_eqIS5_EE9key_valueENSA_19key_value_hash_procENSA_17key_value_eq_procEE4cellEEvPT_j(ptr noundef %ptr, i32 noundef %sz) #4 comdat {
entry:
  %ptr.addr = alloca ptr, align 8
  %sz.addr = alloca i32, align 4
  %curr = alloca ptr, align 8
  %i = alloca i32, align 4
  store ptr %ptr, ptr %ptr.addr, align 8
  store i32 %sz, ptr %sz.addr, align 4
  %0 = load ptr, ptr %ptr.addr, align 8
  %cmp = icmp eq ptr %0, null
  br i1 %cmp, label %if.then, label %if.end

if.then:                                          ; preds = %entry
  br label %return

if.end:                                           ; preds = %entry
  %1 = load ptr, ptr %ptr.addr, align 8
  store ptr %1, ptr %curr, align 8
  store i32 0, ptr %i, align 4
  br label %for.cond

for.cond:                                         ; preds = %for.inc, %if.end
  %2 = load i32, ptr %i, align 4
  %3 = load i32, ptr %sz.addr, align 4
  %cmp1 = icmp ult i32 %2, %3
  br i1 %cmp1, label %for.body, label %for.end

for.body:                                         ; preds = %for.cond
  br label %for.inc

for.inc:                                          ; preds = %for.body
  %4 = load i32, ptr %i, align 4
  %inc = add i32 %4, 1
  store i32 %inc, ptr %i, align 4
  %5 = load ptr, ptr %curr, align 8
  %incdec.ptr = getelementptr inbounds %"struct.chashtable<cmap<std::pair<expr *, unsigned int>, expr *, act_cache::entry_hash, default_eq<std::pair<expr *, unsigned int>>>::key_value, cmap<std::pair<expr *, unsigned int>, expr *, act_cache::entry_hash, default_eq<std::pair<expr *, unsigned int>>>::key_value_hash_proc, cmap<std::pair<expr *, unsigned int>, expr *, act_cache::entry_hash, default_eq<std::pair<expr *, unsigned int>>>::key_value_eq_proc>::cell", ptr %5, i32 1
  store ptr %incdec.ptr, ptr %curr, align 8
  br label %for.cond, !llvm.loop !7

for.end:                                          ; preds = %for.cond
  %6 = load ptr, ptr %ptr.addr, align 8
  call void @_ZN6memory10deallocateEPv(ptr noundef %6)
  br label %return

return:                                           ; preds = %for.end, %if.then
  ret void
}

; Function Attrs: mustprogress uwtable
define linkonce_odr hidden void @_ZN6vectorISt4pairIP4exprjELb0EjE11free_memoryEv(ptr noundef nonnull align 8 dereferenceable(8) %this) #4 comdat align 2 {
entry:
  %this.addr = alloca ptr, align 8
  store ptr %this, ptr %this.addr, align 8
  %this1 = load ptr, ptr %this.addr, align 8
  %m_data = getelementptr inbounds %class.vector, ptr %this1, i32 0, i32 0
  %0 = load ptr, ptr %m_data, align 8
  %add.ptr = getelementptr inbounds i32, ptr %0, i64 -2
  call void @_ZN6memory10deallocateEPv(ptr noundef %add.ptr)
  ret void
}

; Function Attrs: mustprogress uwtable
define linkonce_odr hidden void @_ZN10chashtableIN4cmapISt4pairIP4exprjES3_N9act_cache10entry_hashE10default_eqIS4_EE9key_valueENS9_19key_value_hash_procENS9_17key_value_eq_procEE12delete_tableEv(ptr noundef nonnull align 8 dereferenceable(64) %this) #4 comdat align 2 {
entry:
  %this.addr = alloca ptr, align 8
  store ptr %this, ptr %this.addr, align 8
  %this1 = load ptr, ptr %this.addr, align 8
  %m_table = getelementptr inbounds %class.chashtable, ptr %this1, i32 0, i32 0
  %0 = load ptr, ptr %m_table, align 8
  %m_capacity = getelementptr inbounds %class.chashtable, ptr %this1, i32 0, i32 1
  %1 = load i32, ptr %m_capacity, align 8
  call void @_Z12dealloc_vectIN10chashtableIN4cmapISt4pairIP4exprjES4_N9act_cache10entry_hashE10default_eqIS5_EE9key_valueENSA_19key_value_hash_procENSA_17key_value_eq_procEE4cellEEvPT_j(ptr noundef %0, i32 noundef %1)
  ret void
}

; Function Attrs: mustprogress uwtable
define linkonce_odr hidden void @_ZN6vectorISt4pairIP4exprjELb0EjE7destroyEv(ptr noundef nonnull align 8 dereferenceable(8) %this) #4 comdat align 2 {
entry:
  %this.addr = alloca ptr, align 8
  store ptr %this, ptr %this.addr, align 8
  %this1 = load ptr, ptr %this.addr, align 8
  %m_data = getelementptr inbounds %class.vector, ptr %this1, i32 0, i32 0
  %0 = load ptr, ptr %m_data, align 8
  %tobool = icmp ne ptr %0, null
  br i1 %tobool, label %if.then, label %if.end

if.then:                                          ; preds = %entry
  call void @_ZN6vectorISt4pairIP4exprjELb0EjE11free_memoryEv(ptr noundef nonnull align 8 dereferenceable(8) %this1)
  br label %if.end

if.end:                                           ; preds = %if.then, %entry
  ret void
}

; Function Attrs: mustprogress nounwind uwtable
define linkonce_odr hidden void @_ZN10chashtableIN4cmapISt4pairIP4exprjES3_N9act_cache10entry_hashE10default_eqIS4_EE9key_valueENS9_19key_value_hash_procENS9_17key_value_eq_procEED2Ev(ptr noundef nonnull align 8 dereferenceable(64) %this) unnamed_addr #5 comdat align 2 personality ptr @__gxx_personality_v0 {
entry:
  %this.addr = alloca ptr, align 8
  store ptr %this, ptr %this.addr, align 8
  %this1 = load ptr, ptr %this.addr, align 8
  invoke void @_ZN10chashtableIN4cmapISt4pairIP4exprjES3_N9act_cache10entry_hashE10default_eqIS4_EE9key_valueENS9_19key_value_hash_procENS9_17key_value_eq_procEE12delete_tableEv(ptr noundef nonnull align 8 dereferenceable(64) %this1)
          to label %invoke.cont unwind label %terminate.lpad

invoke.cont:                                      ; preds = %entry
  ret void

terminate.lpad:                                   ; preds = %entry
  %0 = landingpad { ptr, i32 }
          catch ptr null
  %1 = extractvalue { ptr, i32 } %0, 0
  call void @__clang_call_terminate(ptr %1) #12
  unreachable
}

; Function Attrs: mustprogress nounwind uwtable
define linkonce_odr hidden void @_ZN6vectorISt4pairIP4exprjELb0EjED2Ev(ptr noundef nonnull align 8 dereferenceable(8) %this) unnamed_addr #5 comdat align 2 personality ptr @__gxx_personality_v0 {
entry:
  %this.addr = alloca ptr, align 8
  store ptr %this, ptr %this.addr, align 8
  %this1 = load ptr, ptr %this.addr, align 8
  invoke void @_ZN6vectorISt4pairIP4exprjELb0EjE7destroyEv(ptr noundef nonnull align 8 dereferenceable(8) %this1)
          to label %invoke.cont unwind label %terminate.lpad

invoke.cont:                                      ; preds = %entry
  ret void

terminate.lpad:                                   ; preds = %entry
  %0 = landingpad { ptr, i32 }
          catch ptr null
  %1 = extractvalue { ptr, i32 } %0, 0
  call void @__clang_call_terminate(ptr %1) #12
  unreachable
}

; Function Attrs: mustprogress nounwind uwtable
define linkonce_odr hidden void @_ZN4cmapISt4pairIP4exprjES2_N9act_cache10entry_hashE10default_eqIS3_EED2Ev(ptr noundef nonnull align 8 dereferenceable(64) %this) unnamed_addr #5 comdat align 2 {
entry:
  %this.addr = alloca ptr, align 8
  store ptr %this, ptr %this.addr, align 8
  %this1 = load ptr, ptr %this.addr, align 8
  %m_table = getelementptr inbounds %class.cmap, ptr %this1, i32 0, i32 0
  call void @_ZN10chashtableIN4cmapISt4pairIP4exprjES3_N9act_cache10entry_hashE10default_eqIS4_EE9key_valueENS9_19key_value_hash_procENS9_17key_value_eq_procEED2Ev(ptr noundef nonnull align 8 dereferenceable(64) %m_table) #3
  ret void
}

; Function Attrs: mustprogress nounwind uwtable
define linkonce_odr hidden void @_ZN7svectorISt4pairIP4exprjEjED2Ev(ptr noundef nonnull align 8 dereferenceable(8) %this) unnamed_addr #5 comdat align 2 {
entry:
  %this.addr = alloca ptr, align 8
  store ptr %this, ptr %this.addr, align 8
  %this1 = load ptr, ptr %this.addr, align 8
  call void @_ZN6vectorISt4pairIP4exprjELb0EjED2Ev(ptr noundef nonnull align 8 dereferenceable(8) %this1) #3
  ret void
}

; Function Attrs: mustprogress nounwind uwtable
define hidden void @_ZN9act_cacheD2Ev(ptr noundef nonnull align 8 dereferenceable(92) %this) unnamed_addr #5 align 2 personality ptr @__gxx_personality_v0 {
entry:
  %this.addr = alloca ptr, align 8
  store ptr %this, ptr %this.addr, align 8
  %this1 = load ptr, ptr %this.addr, align 8
  invoke void @_ZN9act_cache8dec_refsEv(ptr noundef nonnull align 8 dereferenceable(92) %this1)
          to label %invoke.cont unwind label %terminate.lpad

invoke.cont:                                      ; preds = %entry
  %m_queue = getelementptr inbounds %class.act_cache, ptr %this1, i32 0, i32 2
  call void @_ZN7svectorISt4pairIP4exprjEjED2Ev(ptr noundef nonnull align 8 dereferenceable(8) %m_queue) #3
  %m_table = getelementptr inbounds %class.act_cache, ptr %this1, i32 0, i32 1
  call void @_ZN4cmapISt4pairIP4exprjES2_N9act_cache10entry_hashE10default_eqIS3_EED2Ev(ptr noundef nonnull align 8 dereferenceable(64) %m_table) #3
  ret void

terminate.lpad:                                   ; preds = %entry
  %0 = landingpad { ptr, i32 }
          catch ptr null
  %1 = extractvalue { ptr, i32 } %0, 0
  call void @__clang_call_terminate(ptr %1) #12
  unreachable
}