; Function Attrs: mustprogress nounwind uwtable
define hidden void @_ZN9act_cacheD2Ev(ptr nocapture noundef nonnull readonly align 8 dereferenceable(92) %this) unnamed_addr #6 align 2 personality ptr @__gxx_personality_v0 {
entry:
  invoke void @_ZN9act_cache8dec_refsEv(ptr noundef nonnull align 8 dereferenceable(92) %this)
          to label %invoke.cont unwind label %terminate.lpad

invoke.cont:                                      ; preds = %entry
  %m_queue = getelementptr inbounds i8, ptr %this, i64 72
  %0 = load ptr, ptr %m_queue, align 8
  %tobool.not.i.i.i = icmp eq ptr %0, null
  br i1 %tobool.not.i.i.i, label %_ZN7svectorISt4pairIP4exprjEjED2Ev.exit, label %if.then.i.i.i

if.then.i.i.i:                                    ; preds = %invoke.cont
  %add.ptr.i.i.i.i = getelementptr inbounds i8, ptr %0, i64 -8
  invoke void @_ZN6memory10deallocateEPv(ptr noundef nonnull %add.ptr.i.i.i.i)
          to label %_ZN7svectorISt4pairIP4exprjEjED2Ev.exit unwind label %terminate.lpad.i.i

terminate.lpad.i.i:                               ; preds = %if.then.i.i.i
  %1 = landingpad { ptr, i32 }
          catch ptr null
  %2 = extractvalue { ptr, i32 } %1, 0
  tail call void @__clang_call_terminate(ptr %2) #17
  unreachable

_ZN7svectorISt4pairIP4exprjEjED2Ev.exit:          ; preds = %invoke.cont, %if.then.i.i.i
  %m_table = getelementptr inbounds i8, ptr %this, i64 8
  %3 = load ptr, ptr %m_table, align 8
  %cmp.i.i.i.i = icmp eq ptr %3, null
  br i1 %cmp.i.i.i.i, label %_ZN4cmapISt4pairIP4exprjES2_N9act_cache10entry_hashE10default_eqIS3_EED2Ev.exit, label %for.cond.preheader.i.i.i.i

for.cond.preheader.i.i.i.i:                       ; preds = %_ZN7svectorISt4pairIP4exprjEjED2Ev.exit
  invoke void @_ZN6memory10deallocateEPv(ptr noundef nonnull %3)
          to label %_ZN4cmapISt4pairIP4exprjES2_N9act_cache10entry_hashE10default_eqIS3_EED2Ev.exit unwind label %terminate.lpad.i.i1

terminate.lpad.i.i1:                              ; preds = %for.cond.preheader.i.i.i.i
  %4 = landingpad { ptr, i32 }
          catch ptr null
  %5 = extractvalue { ptr, i32 } %4, 0
  tail call void @__clang_call_terminate(ptr %5) #17
  unreachable

_ZN4cmapISt4pairIP4exprjES2_N9act_cache10entry_hashE10default_eqIS3_EED2Ev.exit: ; preds = %_ZN7svectorISt4pairIP4exprjEjED2Ev.exit, %for.cond.preheader.i.i.i.i
  ret void

terminate.lpad:                                   ; preds = %entry
  %6 = landingpad { ptr, i32 }
          catch ptr null
  %7 = extractvalue { ptr, i32 } %6, 0
  tail call void @__clang_call_terminate(ptr %7) #17
  unreachable
}